; Function Attrs: nounwind sspstrong uwtable
define dso_local i64 @rb_yield_values_kw(i32 noundef %0, ptr noundef %1, i32 noundef %2) local_unnamed_addr #2 {
  %4 = tail call align 8 ptr @llvm.threadlocal.address.p0(ptr align 8 @ruby_current_ec)
  %5 = load ptr, ptr %4, align 8, !tbaa !27
  %6 = getelementptr i8, ptr %5, i64 16
  %.val.i.i.i = load ptr, ptr %6, align 8, !tbaa !66
  %7 = getelementptr i8, ptr %.val.i.i.i, i64 32
  %.val.val.i.i.i = load ptr, ptr %7, align 8, !tbaa !13
  %.0.val4.i.i.i.i.i.i.i = load i64, ptr %.val.val.i.i.i, align 8, !tbaa !7
  %8 = and i64 %.0.val4.i.i.i.i.i.i.i, 2
  %.not5.i.i.i.i.i.i.i = icmp eq i64 %8, 0
  br i1 %.not5.i.i.i.i.i.i.i, label %.lr.ph.i.i.i.i.i.i.i, label %VM_CF_BLOCK_HANDLER.exit.i.i.i.i

.lr.ph.i.i.i.i.i.i.i:                             ; preds = %3, %.lr.ph.i.i.i.i.i.i.i
  %.06.i.i.i.i.i.i.i = phi ptr [ %11, %.lr.ph.i.i.i.i.i.i.i ], [ %.val.val.i.i.i, %3 ]
  %9 = getelementptr i8, ptr %.06.i.i.i.i.i.i.i, i64 -8
  %.0.val3.i.i.i.i.i.i.i = load i64, ptr %9, align 8, !tbaa !7
  %10 = and i64 %.0.val3.i.i.i.i.i.i.i, -4
  %11 = inttoptr i64 %10 to ptr
  %.0.val.i.i.i.i.i.i.i = load i64, ptr %11, align 8, !tbaa !7
  %12 = and i64 %.0.val.i.i.i.i.i.i.i, 2
  %.not.i.i.i.i.i.i.i = icmp eq i64 %12, 0
  br i1 %.not.i.i.i.i.i.i.i, label %.lr.ph.i.i.i.i.i.i.i, label %VM_CF_BLOCK_HANDLER.exit.i.i.i.i, !llvm.loop !11

VM_CF_BLOCK_HANDLER.exit.i.i.i.i:                 ; preds = %.lr.ph.i.i.i.i.i.i.i, %3
  %.0.lcssa.i.i.i.i.i.i.i = phi ptr [ %.val.val.i.i.i, %3 ], [ %11, %.lr.ph.i.i.i.i.i.i.i ]
  %13 = getelementptr i8, ptr %.0.lcssa.i.i.i.i.i.i.i, i64 -8
  %.val2.i.i.i.i.i = load i64, ptr %13, align 8, !tbaa !7
  %14 = icmp eq i64 %.val2.i.i.i.i.i, 0
  br i1 %14, label %15, label %rb_yield_0_kw.exit, !prof !176

15:                                               ; preds = %VM_CF_BLOCK_HANDLER.exit.i.i.i.i
  tail call void @rb_vm_localjump_error(ptr noundef nonnull @.str.247, i64 noundef 4, i32 noundef 0) #56
  unreachable

rb_yield_0_kw.exit:                               ; preds = %VM_CF_BLOCK_HANDLER.exit.i.i.i.i
  %16 = tail call fastcc i64 @invoke_block_from_c_bh(ptr noundef %5, i64 noundef %.val2.i.i.i.i.i, i32 noundef %0, ptr noundef %1, i32 noundef %2, i64 noundef 0, ptr noundef null, i32 noundef 0, i32 noundef 0)
  ret i64 %16
}